ARM GAS  C:\Users\Loren\AppData\Local\Temp\ccbxeupI.s 			page 1


   1              		.cpu cortex-m4
   2              		.arch armv7e-m
   3              		.fpu fpv4-sp-d16
   4              		.eabi_attribute 27, 1
   5              		.eabi_attribute 28, 1
   6              		.eabi_attribute 20, 1
   7              		.eabi_attribute 21, 1
   8              		.eabi_attribute 23, 3
   9              		.eabi_attribute 24, 1
  10              		.eabi_attribute 25, 1
  11              		.eabi_attribute 26, 1
  12              		.eabi_attribute 30, 1
  13              		.eabi_attribute 34, 1
  14              		.eabi_attribute 18, 4
  15              		.file	"usart.c"
  16              		.text
  17              	.Ltext0:
  18              		.cfi_sections	.debug_frame
  19              		.file 1 "Core/Src/usart.c"
  20              		.section	.text.MX_USART1_UART_Init,"ax",%progbits
  21              		.align	1
  22              		.global	MX_USART1_UART_Init
  23              		.syntax unified
  24              		.thumb
  25              		.thumb_func
  27              	MX_USART1_UART_Init:
  28              	.LFB134:
   1:Core/Src/usart.c **** /* USER CODE BEGIN Header */
   2:Core/Src/usart.c **** /**
   3:Core/Src/usart.c ****   ******************************************************************************
   4:Core/Src/usart.c ****   * @file    usart.c
   5:Core/Src/usart.c ****   * @brief   This file provides code for the configuration
   6:Core/Src/usart.c ****   *          of the USART instances.
   7:Core/Src/usart.c ****   ******************************************************************************
   8:Core/Src/usart.c ****   * @attention
   9:Core/Src/usart.c ****   *
  10:Core/Src/usart.c ****   * Copyright (c) 2024 STMicroelectronics.
  11:Core/Src/usart.c ****   * All rights reserved.
  12:Core/Src/usart.c ****   *
  13:Core/Src/usart.c ****   * This software is licensed under terms that can be found in the LICENSE file
  14:Core/Src/usart.c ****   * in the root directory of this software component.
  15:Core/Src/usart.c ****   * If no LICENSE file comes with this software, it is provided AS-IS.
  16:Core/Src/usart.c ****   *
  17:Core/Src/usart.c ****   ******************************************************************************
  18:Core/Src/usart.c ****   */
  19:Core/Src/usart.c **** /* USER CODE END Header */
  20:Core/Src/usart.c **** /* Includes ------------------------------------------------------------------*/
  21:Core/Src/usart.c **** #include "usart.h"
  22:Core/Src/usart.c **** 
  23:Core/Src/usart.c **** /* USER CODE BEGIN 0 */
  24:Core/Src/usart.c **** 
  25:Core/Src/usart.c **** /* USER CODE END 0 */
  26:Core/Src/usart.c **** 
  27:Core/Src/usart.c **** UART_HandleTypeDef huart1;
  28:Core/Src/usart.c **** UART_HandleTypeDef huart2;
  29:Core/Src/usart.c **** 
  30:Core/Src/usart.c **** /* USART1 init function */
ARM GAS  C:\Users\Loren\AppData\Local\Temp\ccbxeupI.s 			page 2


  31:Core/Src/usart.c **** 
  32:Core/Src/usart.c **** void MX_USART1_UART_Init(void)
  33:Core/Src/usart.c **** {
  29              		.loc 1 33 1 view -0
  30              		.cfi_startproc
  31              		@ args = 0, pretend = 0, frame = 0
  32              		@ frame_needed = 0, uses_anonymous_args = 0
  33 0000 08B5     		push	{r3, lr}
  34              		.cfi_def_cfa_offset 8
  35              		.cfi_offset 3, -8
  36              		.cfi_offset 14, -4
  34:Core/Src/usart.c **** 
  35:Core/Src/usart.c ****   /* USER CODE BEGIN USART1_Init 0 */
  36:Core/Src/usart.c **** 
  37:Core/Src/usart.c ****   /* USER CODE END USART1_Init 0 */
  38:Core/Src/usart.c **** 
  39:Core/Src/usart.c ****   /* USER CODE BEGIN USART1_Init 1 */
  40:Core/Src/usart.c **** 
  41:Core/Src/usart.c ****   /* USER CODE END USART1_Init 1 */
  42:Core/Src/usart.c ****   huart1.Instance = USART1;
  37              		.loc 1 42 3 view .LVU1
  38              		.loc 1 42 19 is_stmt 0 view .LVU2
  39 0002 0A48     		ldr	r0, .L5
  40 0004 0A4B     		ldr	r3, .L5+4
  41 0006 0360     		str	r3, [r0]
  43:Core/Src/usart.c ****   huart1.Init.BaudRate = 9600;
  42              		.loc 1 43 3 is_stmt 1 view .LVU3
  43              		.loc 1 43 24 is_stmt 0 view .LVU4
  44 0008 4FF41653 		mov	r3, #9600
  45 000c 4360     		str	r3, [r0, #4]
  44:Core/Src/usart.c ****   huart1.Init.WordLength = UART_WORDLENGTH_8B;
  46              		.loc 1 44 3 is_stmt 1 view .LVU5
  47              		.loc 1 44 26 is_stmt 0 view .LVU6
  48 000e 0023     		movs	r3, #0
  49 0010 8360     		str	r3, [r0, #8]
  45:Core/Src/usart.c ****   huart1.Init.StopBits = UART_STOPBITS_1;
  50              		.loc 1 45 3 is_stmt 1 view .LVU7
  51              		.loc 1 45 24 is_stmt 0 view .LVU8
  52 0012 C360     		str	r3, [r0, #12]
  46:Core/Src/usart.c ****   huart1.Init.Parity = UART_PARITY_NONE;
  53              		.loc 1 46 3 is_stmt 1 view .LVU9
  54              		.loc 1 46 22 is_stmt 0 view .LVU10
  55 0014 0361     		str	r3, [r0, #16]
  47:Core/Src/usart.c ****   huart1.Init.Mode = UART_MODE_TX_RX;
  56              		.loc 1 47 3 is_stmt 1 view .LVU11
  57              		.loc 1 47 20 is_stmt 0 view .LVU12
  58 0016 0C22     		movs	r2, #12
  59 0018 4261     		str	r2, [r0, #20]
  48:Core/Src/usart.c ****   huart1.Init.HwFlowCtl = UART_HWCONTROL_NONE;
  60              		.loc 1 48 3 is_stmt 1 view .LVU13
  61              		.loc 1 48 25 is_stmt 0 view .LVU14
  62 001a 8361     		str	r3, [r0, #24]
  49:Core/Src/usart.c ****   huart1.Init.OverSampling = UART_OVERSAMPLING_16;
  63              		.loc 1 49 3 is_stmt 1 view .LVU15
  64              		.loc 1 49 28 is_stmt 0 view .LVU16
  65 001c C361     		str	r3, [r0, #28]
  50:Core/Src/usart.c ****   if (HAL_UART_Init(&huart1) != HAL_OK)
ARM GAS  C:\Users\Loren\AppData\Local\Temp\ccbxeupI.s 			page 3


  66              		.loc 1 50 3 is_stmt 1 view .LVU17
  67              		.loc 1 50 7 is_stmt 0 view .LVU18
  68 001e FFF7FEFF 		bl	HAL_UART_Init
  69              	.LVL0:
  70              		.loc 1 50 6 discriminator 1 view .LVU19
  71 0022 00B9     		cbnz	r0, .L4
  72              	.L1:
  51:Core/Src/usart.c ****   {
  52:Core/Src/usart.c ****     Error_Handler();
  53:Core/Src/usart.c ****   }
  54:Core/Src/usart.c ****   /* USER CODE BEGIN USART1_Init 2 */
  55:Core/Src/usart.c **** 
  56:Core/Src/usart.c ****   /* USER CODE END USART1_Init 2 */
  57:Core/Src/usart.c **** 
  58:Core/Src/usart.c **** }
  73              		.loc 1 58 1 view .LVU20
  74 0024 08BD     		pop	{r3, pc}
  75              	.L4:
  52:Core/Src/usart.c ****   }
  76              		.loc 1 52 5 is_stmt 1 view .LVU21
  77 0026 FFF7FEFF 		bl	Error_Handler
  78              	.LVL1:
  79              		.loc 1 58 1 is_stmt 0 view .LVU22
  80 002a FBE7     		b	.L1
  81              	.L6:
  82              		.align	2
  83              	.L5:
  84 002c 00000000 		.word	huart1
  85 0030 00100140 		.word	1073811456
  86              		.cfi_endproc
  87              	.LFE134:
  89              		.section	.text.MX_USART2_UART_Init,"ax",%progbits
  90              		.align	1
  91              		.global	MX_USART2_UART_Init
  92              		.syntax unified
  93              		.thumb
  94              		.thumb_func
  96              	MX_USART2_UART_Init:
  97              	.LFB135:
  59:Core/Src/usart.c **** /* USART2 init function */
  60:Core/Src/usart.c **** 
  61:Core/Src/usart.c **** void MX_USART2_UART_Init(void)
  62:Core/Src/usart.c **** {
  98              		.loc 1 62 1 is_stmt 1 view -0
  99              		.cfi_startproc
 100              		@ args = 0, pretend = 0, frame = 0
 101              		@ frame_needed = 0, uses_anonymous_args = 0
 102 0000 08B5     		push	{r3, lr}
 103              		.cfi_def_cfa_offset 8
 104              		.cfi_offset 3, -8
 105              		.cfi_offset 14, -4
  63:Core/Src/usart.c **** 
  64:Core/Src/usart.c ****   /* USER CODE BEGIN USART2_Init 0 */
  65:Core/Src/usart.c **** 
  66:Core/Src/usart.c ****   /* USER CODE END USART2_Init 0 */
  67:Core/Src/usart.c **** 
  68:Core/Src/usart.c ****   /* USER CODE BEGIN USART2_Init 1 */
ARM GAS  C:\Users\Loren\AppData\Local\Temp\ccbxeupI.s 			page 4


  69:Core/Src/usart.c **** 
  70:Core/Src/usart.c ****   /* USER CODE END USART2_Init 1 */
  71:Core/Src/usart.c ****   huart2.Instance = USART2;
 106              		.loc 1 71 3 view .LVU24
 107              		.loc 1 71 19 is_stmt 0 view .LVU25
 108 0002 0A48     		ldr	r0, .L11
 109 0004 0A4B     		ldr	r3, .L11+4
 110 0006 0360     		str	r3, [r0]
  72:Core/Src/usart.c ****   huart2.Init.BaudRate = 115200;
 111              		.loc 1 72 3 is_stmt 1 view .LVU26
 112              		.loc 1 72 24 is_stmt 0 view .LVU27
 113 0008 4FF4E133 		mov	r3, #115200
 114 000c 4360     		str	r3, [r0, #4]
  73:Core/Src/usart.c ****   huart2.Init.WordLength = UART_WORDLENGTH_8B;
 115              		.loc 1 73 3 is_stmt 1 view .LVU28
 116              		.loc 1 73 26 is_stmt 0 view .LVU29
 117 000e 0023     		movs	r3, #0
 118 0010 8360     		str	r3, [r0, #8]
  74:Core/Src/usart.c ****   huart2.Init.StopBits = UART_STOPBITS_1;
 119              		.loc 1 74 3 is_stmt 1 view .LVU30
 120              		.loc 1 74 24 is_stmt 0 view .LVU31
 121 0012 C360     		str	r3, [r0, #12]
  75:Core/Src/usart.c ****   huart2.Init.Parity = UART_PARITY_NONE;
 122              		.loc 1 75 3 is_stmt 1 view .LVU32
 123              		.loc 1 75 22 is_stmt 0 view .LVU33
 124 0014 0361     		str	r3, [r0, #16]
  76:Core/Src/usart.c ****   huart2.Init.Mode = UART_MODE_TX_RX;
 125              		.loc 1 76 3 is_stmt 1 view .LVU34
 126              		.loc 1 76 20 is_stmt 0 view .LVU35
 127 0016 0C22     		movs	r2, #12
 128 0018 4261     		str	r2, [r0, #20]
  77:Core/Src/usart.c ****   huart2.Init.HwFlowCtl = UART_HWCONTROL_NONE;
 129              		.loc 1 77 3 is_stmt 1 view .LVU36
 130              		.loc 1 77 25 is_stmt 0 view .LVU37
 131 001a 8361     		str	r3, [r0, #24]
  78:Core/Src/usart.c ****   huart2.Init.OverSampling = UART_OVERSAMPLING_16;
 132              		.loc 1 78 3 is_stmt 1 view .LVU38
 133              		.loc 1 78 28 is_stmt 0 view .LVU39
 134 001c C361     		str	r3, [r0, #28]
  79:Core/Src/usart.c ****   if (HAL_UART_Init(&huart2) != HAL_OK)
 135              		.loc 1 79 3 is_stmt 1 view .LVU40
 136              		.loc 1 79 7 is_stmt 0 view .LVU41
 137 001e FFF7FEFF 		bl	HAL_UART_Init
 138              	.LVL2:
 139              		.loc 1 79 6 discriminator 1 view .LVU42
 140 0022 00B9     		cbnz	r0, .L10
 141              	.L7:
  80:Core/Src/usart.c ****   {
  81:Core/Src/usart.c ****     Error_Handler();
  82:Core/Src/usart.c ****   }
  83:Core/Src/usart.c ****   /* USER CODE BEGIN USART2_Init 2 */
  84:Core/Src/usart.c **** 
  85:Core/Src/usart.c ****   /* USER CODE END USART2_Init 2 */
  86:Core/Src/usart.c **** 
  87:Core/Src/usart.c **** }
 142              		.loc 1 87 1 view .LVU43
 143 0024 08BD     		pop	{r3, pc}
ARM GAS  C:\Users\Loren\AppData\Local\Temp\ccbxeupI.s 			page 5


 144              	.L10:
  81:Core/Src/usart.c ****   }
 145              		.loc 1 81 5 is_stmt 1 view .LVU44
 146 0026 FFF7FEFF 		bl	Error_Handler
 147              	.LVL3:
 148              		.loc 1 87 1 is_stmt 0 view .LVU45
 149 002a FBE7     		b	.L7
 150              	.L12:
 151              		.align	2
 152              	.L11:
 153 002c 00000000 		.word	huart2
 154 0030 00440040 		.word	1073759232
 155              		.cfi_endproc
 156              	.LFE135:
 158              		.section	.text.HAL_UART_MspInit,"ax",%progbits
 159              		.align	1
 160              		.global	HAL_UART_MspInit
 161              		.syntax unified
 162              		.thumb
 163              		.thumb_func
 165              	HAL_UART_MspInit:
 166              	.LVL4:
 167              	.LFB136:
  88:Core/Src/usart.c **** 
  89:Core/Src/usart.c **** void HAL_UART_MspInit(UART_HandleTypeDef* uartHandle)
  90:Core/Src/usart.c **** {
 168              		.loc 1 90 1 is_stmt 1 view -0
 169              		.cfi_startproc
 170              		@ args = 0, pretend = 0, frame = 40
 171              		@ frame_needed = 0, uses_anonymous_args = 0
 172              		.loc 1 90 1 is_stmt 0 view .LVU47
 173 0000 10B5     		push	{r4, lr}
 174              		.cfi_def_cfa_offset 8
 175              		.cfi_offset 4, -8
 176              		.cfi_offset 14, -4
 177 0002 8AB0     		sub	sp, sp, #40
 178              		.cfi_def_cfa_offset 48
  91:Core/Src/usart.c **** 
  92:Core/Src/usart.c ****   GPIO_InitTypeDef GPIO_InitStruct = {0};
 179              		.loc 1 92 3 is_stmt 1 view .LVU48
 180              		.loc 1 92 20 is_stmt 0 view .LVU49
 181 0004 0023     		movs	r3, #0
 182 0006 0593     		str	r3, [sp, #20]
 183 0008 0693     		str	r3, [sp, #24]
 184 000a 0793     		str	r3, [sp, #28]
 185 000c 0893     		str	r3, [sp, #32]
 186 000e 0993     		str	r3, [sp, #36]
  93:Core/Src/usart.c ****   if(uartHandle->Instance==USART1)
 187              		.loc 1 93 3 is_stmt 1 view .LVU50
 188              		.loc 1 93 16 is_stmt 0 view .LVU51
 189 0010 0368     		ldr	r3, [r0]
 190              		.loc 1 93 5 view .LVU52
 191 0012 2A4A     		ldr	r2, .L19
 192 0014 9342     		cmp	r3, r2
 193 0016 04D0     		beq	.L17
  94:Core/Src/usart.c ****   {
  95:Core/Src/usart.c ****   /* USER CODE BEGIN USART1_MspInit 0 */
ARM GAS  C:\Users\Loren\AppData\Local\Temp\ccbxeupI.s 			page 6


  96:Core/Src/usart.c **** 
  97:Core/Src/usart.c ****   /* USER CODE END USART1_MspInit 0 */
  98:Core/Src/usart.c ****     /* USART1 clock enable */
  99:Core/Src/usart.c ****     __HAL_RCC_USART1_CLK_ENABLE();
 100:Core/Src/usart.c **** 
 101:Core/Src/usart.c ****     __HAL_RCC_GPIOA_CLK_ENABLE();
 102:Core/Src/usart.c ****     /**USART1 GPIO Configuration
 103:Core/Src/usart.c ****     PA9     ------> USART1_TX
 104:Core/Src/usart.c ****     PA10     ------> USART1_RX
 105:Core/Src/usart.c ****     */
 106:Core/Src/usart.c ****     GPIO_InitStruct.Pin = GPIO_PIN_9|GPIO_PIN_10;
 107:Core/Src/usart.c ****     GPIO_InitStruct.Mode = GPIO_MODE_AF_PP;
 108:Core/Src/usart.c ****     GPIO_InitStruct.Pull = GPIO_NOPULL;
 109:Core/Src/usart.c ****     GPIO_InitStruct.Speed = GPIO_SPEED_FREQ_VERY_HIGH;
 110:Core/Src/usart.c ****     GPIO_InitStruct.Alternate = GPIO_AF7_USART1;
 111:Core/Src/usart.c ****     HAL_GPIO_Init(GPIOA, &GPIO_InitStruct);
 112:Core/Src/usart.c **** 
 113:Core/Src/usart.c ****     /* USART1 interrupt Init */
 114:Core/Src/usart.c ****     HAL_NVIC_SetPriority(USART1_IRQn, 0, 0);
 115:Core/Src/usart.c ****     HAL_NVIC_EnableIRQ(USART1_IRQn);
 116:Core/Src/usart.c ****   /* USER CODE BEGIN USART1_MspInit 1 */
 117:Core/Src/usart.c **** 
 118:Core/Src/usart.c ****   /* USER CODE END USART1_MspInit 1 */
 119:Core/Src/usart.c ****   }
 120:Core/Src/usart.c ****   else if(uartHandle->Instance==USART2)
 194              		.loc 1 120 8 is_stmt 1 view .LVU53
 195              		.loc 1 120 10 is_stmt 0 view .LVU54
 196 0018 294A     		ldr	r2, .L19+4
 197 001a 9342     		cmp	r3, r2
 198 001c 2DD0     		beq	.L18
 199              	.LVL5:
 200              	.L13:
 121:Core/Src/usart.c ****   {
 122:Core/Src/usart.c ****   /* USER CODE BEGIN USART2_MspInit 0 */
 123:Core/Src/usart.c **** 
 124:Core/Src/usart.c ****   /* USER CODE END USART2_MspInit 0 */
 125:Core/Src/usart.c ****     /* USART2 clock enable */
 126:Core/Src/usart.c ****     __HAL_RCC_USART2_CLK_ENABLE();
 127:Core/Src/usart.c **** 
 128:Core/Src/usart.c ****     __HAL_RCC_GPIOA_CLK_ENABLE();
 129:Core/Src/usart.c ****     /**USART2 GPIO Configuration
 130:Core/Src/usart.c ****     PA2     ------> USART2_TX
 131:Core/Src/usart.c ****     PA3     ------> USART2_RX
 132:Core/Src/usart.c ****     */
 133:Core/Src/usart.c ****     GPIO_InitStruct.Pin = USART_TX_Pin|USART_RX_Pin;
 134:Core/Src/usart.c ****     GPIO_InitStruct.Mode = GPIO_MODE_AF_PP;
 135:Core/Src/usart.c ****     GPIO_InitStruct.Pull = GPIO_NOPULL;
 136:Core/Src/usart.c ****     GPIO_InitStruct.Speed = GPIO_SPEED_FREQ_LOW;
 137:Core/Src/usart.c ****     GPIO_InitStruct.Alternate = GPIO_AF7_USART2;
 138:Core/Src/usart.c ****     HAL_GPIO_Init(GPIOA, &GPIO_InitStruct);
 139:Core/Src/usart.c **** 
 140:Core/Src/usart.c ****   /* USER CODE BEGIN USART2_MspInit 1 */
 141:Core/Src/usart.c **** 
 142:Core/Src/usart.c ****   /* USER CODE END USART2_MspInit 1 */
 143:Core/Src/usart.c ****   }
 144:Core/Src/usart.c **** }
 201              		.loc 1 144 1 view .LVU55
ARM GAS  C:\Users\Loren\AppData\Local\Temp\ccbxeupI.s 			page 7


 202 001e 0AB0     		add	sp, sp, #40
 203              		.cfi_remember_state
 204              		.cfi_def_cfa_offset 8
 205              		@ sp needed
 206 0020 10BD     		pop	{r4, pc}
 207              	.LVL6:
 208              	.L17:
 209              		.cfi_restore_state
  99:Core/Src/usart.c **** 
 210              		.loc 1 99 5 is_stmt 1 view .LVU56
 211              	.LBB2:
  99:Core/Src/usart.c **** 
 212              		.loc 1 99 5 view .LVU57
 213 0022 0024     		movs	r4, #0
 214 0024 0194     		str	r4, [sp, #4]
  99:Core/Src/usart.c **** 
 215              		.loc 1 99 5 view .LVU58
 216 0026 274B     		ldr	r3, .L19+8
 217 0028 5A6C     		ldr	r2, [r3, #68]
 218 002a 42F01002 		orr	r2, r2, #16
 219 002e 5A64     		str	r2, [r3, #68]
  99:Core/Src/usart.c **** 
 220              		.loc 1 99 5 view .LVU59
 221 0030 5A6C     		ldr	r2, [r3, #68]
 222 0032 02F01002 		and	r2, r2, #16
 223 0036 0192     		str	r2, [sp, #4]
  99:Core/Src/usart.c **** 
 224              		.loc 1 99 5 view .LVU60
 225 0038 019A     		ldr	r2, [sp, #4]
 226              	.LBE2:
  99:Core/Src/usart.c **** 
 227              		.loc 1 99 5 view .LVU61
 101:Core/Src/usart.c ****     /**USART1 GPIO Configuration
 228              		.loc 1 101 5 view .LVU62
 229              	.LBB3:
 101:Core/Src/usart.c ****     /**USART1 GPIO Configuration
 230              		.loc 1 101 5 view .LVU63
 231 003a 0294     		str	r4, [sp, #8]
 101:Core/Src/usart.c ****     /**USART1 GPIO Configuration
 232              		.loc 1 101 5 view .LVU64
 233 003c 1A6B     		ldr	r2, [r3, #48]
 234 003e 42F00102 		orr	r2, r2, #1
 235 0042 1A63     		str	r2, [r3, #48]
 101:Core/Src/usart.c ****     /**USART1 GPIO Configuration
 236              		.loc 1 101 5 view .LVU65
 237 0044 1B6B     		ldr	r3, [r3, #48]
 238 0046 03F00103 		and	r3, r3, #1
 239 004a 0293     		str	r3, [sp, #8]
 101:Core/Src/usart.c ****     /**USART1 GPIO Configuration
 240              		.loc 1 101 5 view .LVU66
 241 004c 029B     		ldr	r3, [sp, #8]
 242              	.LBE3:
 101:Core/Src/usart.c ****     /**USART1 GPIO Configuration
 243              		.loc 1 101 5 view .LVU67
 106:Core/Src/usart.c ****     GPIO_InitStruct.Mode = GPIO_MODE_AF_PP;
 244              		.loc 1 106 5 view .LVU68
 106:Core/Src/usart.c ****     GPIO_InitStruct.Mode = GPIO_MODE_AF_PP;
ARM GAS  C:\Users\Loren\AppData\Local\Temp\ccbxeupI.s 			page 8


 245              		.loc 1 106 25 is_stmt 0 view .LVU69
 246 004e 4FF4C063 		mov	r3, #1536
 247 0052 0593     		str	r3, [sp, #20]
 107:Core/Src/usart.c ****     GPIO_InitStruct.Pull = GPIO_NOPULL;
 248              		.loc 1 107 5 is_stmt 1 view .LVU70
 107:Core/Src/usart.c ****     GPIO_InitStruct.Pull = GPIO_NOPULL;
 249              		.loc 1 107 26 is_stmt 0 view .LVU71
 250 0054 0223     		movs	r3, #2
 251 0056 0693     		str	r3, [sp, #24]
 108:Core/Src/usart.c ****     GPIO_InitStruct.Speed = GPIO_SPEED_FREQ_VERY_HIGH;
 252              		.loc 1 108 5 is_stmt 1 view .LVU72
 109:Core/Src/usart.c ****     GPIO_InitStruct.Alternate = GPIO_AF7_USART1;
 253              		.loc 1 109 5 view .LVU73
 109:Core/Src/usart.c ****     GPIO_InitStruct.Alternate = GPIO_AF7_USART1;
 254              		.loc 1 109 27 is_stmt 0 view .LVU74
 255 0058 0323     		movs	r3, #3
 256 005a 0893     		str	r3, [sp, #32]
 110:Core/Src/usart.c ****     HAL_GPIO_Init(GPIOA, &GPIO_InitStruct);
 257              		.loc 1 110 5 is_stmt 1 view .LVU75
 110:Core/Src/usart.c ****     HAL_GPIO_Init(GPIOA, &GPIO_InitStruct);
 258              		.loc 1 110 31 is_stmt 0 view .LVU76
 259 005c 0723     		movs	r3, #7
 260 005e 0993     		str	r3, [sp, #36]
 111:Core/Src/usart.c **** 
 261              		.loc 1 111 5 is_stmt 1 view .LVU77
 262 0060 05A9     		add	r1, sp, #20
 263 0062 1948     		ldr	r0, .L19+12
 264              	.LVL7:
 111:Core/Src/usart.c **** 
 265              		.loc 1 111 5 is_stmt 0 view .LVU78
 266 0064 FFF7FEFF 		bl	HAL_GPIO_Init
 267              	.LVL8:
 114:Core/Src/usart.c ****     HAL_NVIC_EnableIRQ(USART1_IRQn);
 268              		.loc 1 114 5 is_stmt 1 view .LVU79
 269 0068 2246     		mov	r2, r4
 270 006a 2146     		mov	r1, r4
 271 006c 2520     		movs	r0, #37
 272 006e FFF7FEFF 		bl	HAL_NVIC_SetPriority
 273              	.LVL9:
 115:Core/Src/usart.c ****   /* USER CODE BEGIN USART1_MspInit 1 */
 274              		.loc 1 115 5 view .LVU80
 275 0072 2520     		movs	r0, #37
 276 0074 FFF7FEFF 		bl	HAL_NVIC_EnableIRQ
 277              	.LVL10:
 278 0078 D1E7     		b	.L13
 279              	.LVL11:
 280              	.L18:
 126:Core/Src/usart.c **** 
 281              		.loc 1 126 5 view .LVU81
 282              	.LBB4:
 126:Core/Src/usart.c **** 
 283              		.loc 1 126 5 view .LVU82
 284 007a 0021     		movs	r1, #0
 285 007c 0391     		str	r1, [sp, #12]
 126:Core/Src/usart.c **** 
 286              		.loc 1 126 5 view .LVU83
 287 007e 114B     		ldr	r3, .L19+8
ARM GAS  C:\Users\Loren\AppData\Local\Temp\ccbxeupI.s 			page 9


 288 0080 1A6C     		ldr	r2, [r3, #64]
 289 0082 42F40032 		orr	r2, r2, #131072
 290 0086 1A64     		str	r2, [r3, #64]
 126:Core/Src/usart.c **** 
 291              		.loc 1 126 5 view .LVU84
 292 0088 1A6C     		ldr	r2, [r3, #64]
 293 008a 02F40032 		and	r2, r2, #131072
 294 008e 0392     		str	r2, [sp, #12]
 126:Core/Src/usart.c **** 
 295              		.loc 1 126 5 view .LVU85
 296 0090 039A     		ldr	r2, [sp, #12]
 297              	.LBE4:
 126:Core/Src/usart.c **** 
 298              		.loc 1 126 5 view .LVU86
 128:Core/Src/usart.c ****     /**USART2 GPIO Configuration
 299              		.loc 1 128 5 view .LVU87
 300              	.LBB5:
 128:Core/Src/usart.c ****     /**USART2 GPIO Configuration
 301              		.loc 1 128 5 view .LVU88
 302 0092 0491     		str	r1, [sp, #16]
 128:Core/Src/usart.c ****     /**USART2 GPIO Configuration
 303              		.loc 1 128 5 view .LVU89
 304 0094 1A6B     		ldr	r2, [r3, #48]
 305 0096 42F00102 		orr	r2, r2, #1
 306 009a 1A63     		str	r2, [r3, #48]
 128:Core/Src/usart.c ****     /**USART2 GPIO Configuration
 307              		.loc 1 128 5 view .LVU90
 308 009c 1B6B     		ldr	r3, [r3, #48]
 309 009e 03F00103 		and	r3, r3, #1
 310 00a2 0493     		str	r3, [sp, #16]
 128:Core/Src/usart.c ****     /**USART2 GPIO Configuration
 311              		.loc 1 128 5 view .LVU91
 312 00a4 049B     		ldr	r3, [sp, #16]
 313              	.LBE5:
 128:Core/Src/usart.c ****     /**USART2 GPIO Configuration
 314              		.loc 1 128 5 view .LVU92
 133:Core/Src/usart.c ****     GPIO_InitStruct.Mode = GPIO_MODE_AF_PP;
 315              		.loc 1 133 5 view .LVU93
 133:Core/Src/usart.c ****     GPIO_InitStruct.Mode = GPIO_MODE_AF_PP;
 316              		.loc 1 133 25 is_stmt 0 view .LVU94
 317 00a6 0C23     		movs	r3, #12
 318 00a8 0593     		str	r3, [sp, #20]
 134:Core/Src/usart.c ****     GPIO_InitStruct.Pull = GPIO_NOPULL;
 319              		.loc 1 134 5 is_stmt 1 view .LVU95
 134:Core/Src/usart.c ****     GPIO_InitStruct.Pull = GPIO_NOPULL;
 320              		.loc 1 134 26 is_stmt 0 view .LVU96
 321 00aa 0223     		movs	r3, #2
 322 00ac 0693     		str	r3, [sp, #24]
 135:Core/Src/usart.c ****     GPIO_InitStruct.Speed = GPIO_SPEED_FREQ_LOW;
 323              		.loc 1 135 5 is_stmt 1 view .LVU97
 136:Core/Src/usart.c ****     GPIO_InitStruct.Alternate = GPIO_AF7_USART2;
 324              		.loc 1 136 5 view .LVU98
 137:Core/Src/usart.c ****     HAL_GPIO_Init(GPIOA, &GPIO_InitStruct);
 325              		.loc 1 137 5 view .LVU99
 137:Core/Src/usart.c ****     HAL_GPIO_Init(GPIOA, &GPIO_InitStruct);
 326              		.loc 1 137 31 is_stmt 0 view .LVU100
 327 00ae 0723     		movs	r3, #7
ARM GAS  C:\Users\Loren\AppData\Local\Temp\ccbxeupI.s 			page 10


 328 00b0 0993     		str	r3, [sp, #36]
 138:Core/Src/usart.c **** 
 329              		.loc 1 138 5 is_stmt 1 view .LVU101
 330 00b2 05A9     		add	r1, sp, #20
 331 00b4 0448     		ldr	r0, .L19+12
 332              	.LVL12:
 138:Core/Src/usart.c **** 
 333              		.loc 1 138 5 is_stmt 0 view .LVU102
 334 00b6 FFF7FEFF 		bl	HAL_GPIO_Init
 335              	.LVL13:
 336              		.loc 1 144 1 view .LVU103
 337 00ba B0E7     		b	.L13
 338              	.L20:
 339              		.align	2
 340              	.L19:
 341 00bc 00100140 		.word	1073811456
 342 00c0 00440040 		.word	1073759232
 343 00c4 00380240 		.word	1073887232
 344 00c8 00000240 		.word	1073872896
 345              		.cfi_endproc
 346              	.LFE136:
 348              		.section	.text.HAL_UART_MspDeInit,"ax",%progbits
 349              		.align	1
 350              		.global	HAL_UART_MspDeInit
 351              		.syntax unified
 352              		.thumb
 353              		.thumb_func
 355              	HAL_UART_MspDeInit:
 356              	.LVL14:
 357              	.LFB137:
 145:Core/Src/usart.c **** 
 146:Core/Src/usart.c **** void HAL_UART_MspDeInit(UART_HandleTypeDef* uartHandle)
 147:Core/Src/usart.c **** {
 358              		.loc 1 147 1 is_stmt 1 view -0
 359              		.cfi_startproc
 360              		@ args = 0, pretend = 0, frame = 0
 361              		@ frame_needed = 0, uses_anonymous_args = 0
 362              		.loc 1 147 1 is_stmt 0 view .LVU105
 363 0000 08B5     		push	{r3, lr}
 364              		.cfi_def_cfa_offset 8
 365              		.cfi_offset 3, -8
 366              		.cfi_offset 14, -4
 148:Core/Src/usart.c **** 
 149:Core/Src/usart.c ****   if(uartHandle->Instance==USART1)
 367              		.loc 1 149 3 is_stmt 1 view .LVU106
 368              		.loc 1 149 16 is_stmt 0 view .LVU107
 369 0002 0368     		ldr	r3, [r0]
 370              		.loc 1 149 5 view .LVU108
 371 0004 104A     		ldr	r2, .L27
 372 0006 9342     		cmp	r3, r2
 373 0008 03D0     		beq	.L25
 150:Core/Src/usart.c ****   {
 151:Core/Src/usart.c ****   /* USER CODE BEGIN USART1_MspDeInit 0 */
 152:Core/Src/usart.c **** 
 153:Core/Src/usart.c ****   /* USER CODE END USART1_MspDeInit 0 */
 154:Core/Src/usart.c ****     /* Peripheral clock disable */
 155:Core/Src/usart.c ****     __HAL_RCC_USART1_CLK_DISABLE();
ARM GAS  C:\Users\Loren\AppData\Local\Temp\ccbxeupI.s 			page 11


 156:Core/Src/usart.c **** 
 157:Core/Src/usart.c ****     /**USART1 GPIO Configuration
 158:Core/Src/usart.c ****     PA9     ------> USART1_TX
 159:Core/Src/usart.c ****     PA10     ------> USART1_RX
 160:Core/Src/usart.c ****     */
 161:Core/Src/usart.c ****     HAL_GPIO_DeInit(GPIOA, GPIO_PIN_9|GPIO_PIN_10);
 162:Core/Src/usart.c **** 
 163:Core/Src/usart.c ****     /* USART1 interrupt Deinit */
 164:Core/Src/usart.c ****     HAL_NVIC_DisableIRQ(USART1_IRQn);
 165:Core/Src/usart.c ****   /* USER CODE BEGIN USART1_MspDeInit 1 */
 166:Core/Src/usart.c **** 
 167:Core/Src/usart.c ****   /* USER CODE END USART1_MspDeInit 1 */
 168:Core/Src/usart.c ****   }
 169:Core/Src/usart.c ****   else if(uartHandle->Instance==USART2)
 374              		.loc 1 169 8 is_stmt 1 view .LVU109
 375              		.loc 1 169 10 is_stmt 0 view .LVU110
 376 000a 104A     		ldr	r2, .L27+4
 377 000c 9342     		cmp	r3, r2
 378 000e 0FD0     		beq	.L26
 379              	.LVL15:
 380              	.L21:
 170:Core/Src/usart.c ****   {
 171:Core/Src/usart.c ****   /* USER CODE BEGIN USART2_MspDeInit 0 */
 172:Core/Src/usart.c **** 
 173:Core/Src/usart.c ****   /* USER CODE END USART2_MspDeInit 0 */
 174:Core/Src/usart.c ****     /* Peripheral clock disable */
 175:Core/Src/usart.c ****     __HAL_RCC_USART2_CLK_DISABLE();
 176:Core/Src/usart.c **** 
 177:Core/Src/usart.c ****     /**USART2 GPIO Configuration
 178:Core/Src/usart.c ****     PA2     ------> USART2_TX
 179:Core/Src/usart.c ****     PA3     ------> USART2_RX
 180:Core/Src/usart.c ****     */
 181:Core/Src/usart.c ****     HAL_GPIO_DeInit(GPIOA, USART_TX_Pin|USART_RX_Pin);
 182:Core/Src/usart.c **** 
 183:Core/Src/usart.c ****   /* USER CODE BEGIN USART2_MspDeInit 1 */
 184:Core/Src/usart.c **** 
 185:Core/Src/usart.c ****   /* USER CODE END USART2_MspDeInit 1 */
 186:Core/Src/usart.c ****   }
 187:Core/Src/usart.c **** }
 381              		.loc 1 187 1 view .LVU111
 382 0010 08BD     		pop	{r3, pc}
 383              	.LVL16:
 384              	.L25:
 155:Core/Src/usart.c **** 
 385              		.loc 1 155 5 is_stmt 1 view .LVU112
 386 0012 02F59432 		add	r2, r2, #75776
 387 0016 536C     		ldr	r3, [r2, #68]
 388 0018 23F01003 		bic	r3, r3, #16
 389 001c 5364     		str	r3, [r2, #68]
 161:Core/Src/usart.c **** 
 390              		.loc 1 161 5 view .LVU113
 391 001e 4FF4C061 		mov	r1, #1536
 392 0022 0B48     		ldr	r0, .L27+8
 393              	.LVL17:
 161:Core/Src/usart.c **** 
 394              		.loc 1 161 5 is_stmt 0 view .LVU114
 395 0024 FFF7FEFF 		bl	HAL_GPIO_DeInit
ARM GAS  C:\Users\Loren\AppData\Local\Temp\ccbxeupI.s 			page 12


 396              	.LVL18:
 164:Core/Src/usart.c ****   /* USER CODE BEGIN USART1_MspDeInit 1 */
 397              		.loc 1 164 5 is_stmt 1 view .LVU115
 398 0028 2520     		movs	r0, #37
 399 002a FFF7FEFF 		bl	HAL_NVIC_DisableIRQ
 400              	.LVL19:
 401 002e EFE7     		b	.L21
 402              	.LVL20:
 403              	.L26:
 175:Core/Src/usart.c **** 
 404              		.loc 1 175 5 view .LVU116
 405 0030 02F5FA32 		add	r2, r2, #128000
 406 0034 136C     		ldr	r3, [r2, #64]
 407 0036 23F40033 		bic	r3, r3, #131072
 408 003a 1364     		str	r3, [r2, #64]
 181:Core/Src/usart.c **** 
 409              		.loc 1 181 5 view .LVU117
 410 003c 0C21     		movs	r1, #12
 411 003e 0448     		ldr	r0, .L27+8
 412              	.LVL21:
 181:Core/Src/usart.c **** 
 413              		.loc 1 181 5 is_stmt 0 view .LVU118
 414 0040 FFF7FEFF 		bl	HAL_GPIO_DeInit
 415              	.LVL22:
 416              		.loc 1 187 1 view .LVU119
 417 0044 E4E7     		b	.L21
 418              	.L28:
 419 0046 00BF     		.align	2
 420              	.L27:
 421 0048 00100140 		.word	1073811456
 422 004c 00440040 		.word	1073759232
 423 0050 00000240 		.word	1073872896
 424              		.cfi_endproc
 425              	.LFE137:
 427              		.global	huart2
 428              		.section	.bss.huart2,"aw",%nobits
 429              		.align	2
 432              	huart2:
 433 0000 00000000 		.space	72
 433      00000000 
 433      00000000 
 433      00000000 
 433      00000000 
 434              		.global	huart1
 435              		.section	.bss.huart1,"aw",%nobits
 436              		.align	2
 439              	huart1:
 440 0000 00000000 		.space	72
 440      00000000 
 440      00000000 
 440      00000000 
 440      00000000 
 441              		.text
 442              	.Letext0:
 443              		.file 2 "Drivers/CMSIS/Device/ST/STM32F4xx/Include/stm32f401xe.h"
 444              		.file 3 "C:/Users/Loren/AppData/Roaming/Code/User/globalStorage/bmd.stm32-for-vscode/@xpack-dev-to
 445              		.file 4 "C:/Users/Loren/AppData/Roaming/Code/User/globalStorage/bmd.stm32-for-vscode/@xpack-dev-to
ARM GAS  C:\Users\Loren\AppData\Local\Temp\ccbxeupI.s 			page 13


 446              		.file 5 "Drivers/STM32F4xx_HAL_Driver/Inc/stm32f4xx_hal_def.h"
 447              		.file 6 "Drivers/STM32F4xx_HAL_Driver/Inc/stm32f4xx_hal_gpio.h"
 448              		.file 7 "Drivers/STM32F4xx_HAL_Driver/Inc/stm32f4xx_hal_dma.h"
 449              		.file 8 "Drivers/STM32F4xx_HAL_Driver/Inc/stm32f4xx_hal_uart.h"
 450              		.file 9 "Core/Inc/usart.h"
 451              		.file 10 "Drivers/STM32F4xx_HAL_Driver/Inc/stm32f4xx_hal_cortex.h"
 452              		.file 11 "Core/Inc/main.h"
ARM GAS  C:\Users\Loren\AppData\Local\Temp\ccbxeupI.s 			page 14

